target datalayout = "e-m:e-p270:32:32-p271:32:32-p272:64:64-i64:64-i128:128-f80:128-n8:16:32:64-S128"
target triple = "x86_64-pc-linux-gnu"

%struct._value_string_ext = type { ptr, i32, i32, ptr, ptr }
%struct.expert_field = type { i32, i32 }
%struct._packet_info = type { ptr, ptr, i32, i32, %struct.nstime_t, %struct.nstime_t, %struct.nstime_t, i8, ptr, ptr, ptr, ptr, %struct._address, %struct._address, %struct._address, %struct._address, %struct._address, %struct._address, i32, ptr, i8, [3 x i8], %struct.anon, i32, i32, i32, i32, ptr, i8, ptr, ptr, i16, i16, i32, i32, i16, i32, i32, ptr, ptr, ptr, i8, i8, i16, i16, i16, i32, i16, i16, ptr, ptr, ptr, ptr, ptr, i32, i32 }
%struct.nstime_t = type { i64, i32 }
%struct._address = type { i32, i32, ptr, ptr }
%struct.anon = type { i8, [3 x i8] }

@hf_nas_eps_bearer_id = internal global i32 0, align 4
@hf_nas_eps_msg_elems = internal global i32 0, align 4
@hf_nas_eps_msg_esm_type = internal global i32 0, align 4
@nas_msg_esm_strings_ext = internal global %struct._value_string_ext { ptr @_try_val_to_str_ext_init, i32 0, i32 27, ptr @nas_msg_esm_strings, ptr @.str.1312 }, align 8
@hf_nas_eps_esm_proc_trans_id = internal global i32 0, align 4
@ei_nas_eps_unknown_msg_type = internal global %struct.expert_field zeroinitializer, align 4
@ett_nas_msg_esm = internal global [28 x i32] zeroinitializer, align 16
@hf_gsm_a_L3_protocol_discriminator = external global i32, align 4
@.str.958 = private unnamed_addr constant [28 x i8] c"Unknown Message Type 0x%02x\00", align 1

; Function Attrs: null_pointer_is_valid sspstrong uwtable
define internal void @get_nas_esm_msg_params(i8 noundef zeroext %0, ptr noundef %1, ptr noundef %2, ptr noundef %3, ptr noundef %4) #1 {
  %6 = alloca i8, align 1
  %7 = alloca ptr, align 8
  %8 = alloca ptr, align 8
  %9 = alloca ptr, align 8
  %10 = alloca ptr, align 8
  %11 = alloca i32, align 4
  store i8 %0, ptr %6, align 1
  store ptr %1, ptr %7, align 8
  store ptr %2, ptr %8, align 8
  store ptr %3, ptr %9, align 8
  store ptr %4, ptr %10, align 8
  call void @llvm.lifetime.start.p0(i64 4, ptr %11) #10
  %12 = load i8, ptr %6, align 1
  %13 = zext i8 %12 to i32
  %14 = and i32 %13, 255
  %15 = call ptr @try_val_to_str_idx_ext(i32 noundef %14, ptr noundef @nas_msg_esm_strings_ext, ptr noundef %11)
  %16 = load ptr, ptr %7, align 8
  store ptr %15, ptr %16, align 8
  %17 = load i32, ptr @hf_nas_eps_msg_esm_type, align 4
  %18 = load ptr, ptr %9, align 8
  store i32 %17, ptr %18, align 4
  %19 = load ptr, ptr %7, align 8
  %20 = load ptr, ptr %19, align 8
  %21 = icmp ne ptr %20, null
  br i1 %21, label %22, label %33

22:                                               ; preds = %5
  %23 = load i32, ptr %11, align 4
  %24 = sext i32 %23 to i64
  %25 = getelementptr [28 x i32], ptr @ett_nas_msg_esm, i64 0, i64 %24
  %26 = load i32, ptr %25, align 4
  %27 = load ptr, ptr %8, align 8
  store i32 %26, ptr %27, align 4
  %28 = load i32, ptr %11, align 4
  %29 = sext i32 %28 to i64
  %30 = getelementptr [28 x ptr], ptr @nas_msg_esm_fcn, i64 0, i64 %29
  %31 = load ptr, ptr %30, align 8
  %32 = load ptr, ptr %10, align 8
  store ptr %31, ptr %32, align 8
  br label %33

33:                                               ; preds = %22, %5
  call void @llvm.lifetime.end.p0(i64 4, ptr %11) #10
  ret void
}

; Function Attrs: null_pointer_is_valid sspstrong uwtable
define internal void @dissect_nas_eps_esm_msg(ptr noundef %0, ptr noundef %1, ptr noundef %2, i32 noundef %3) #1 {
  %5 = alloca ptr, align 8
  %6 = alloca ptr, align 8
  %7 = alloca ptr, align 8
  %8 = alloca i32, align 4
  %9 = alloca ptr, align 8
  %10 = alloca i32, align 4
  %11 = alloca i32, align 4
  %12 = alloca i32, align 4
  %13 = alloca ptr, align 8
  %14 = alloca i8, align 1
  %15 = alloca i32, align 4
  store ptr %0, ptr %5, align 8
  store ptr %1, ptr %6, align 8
  store ptr %2, ptr %7, align 8
  store i32 %3, ptr %8, align 4
  call void @llvm.lifetime.start.p0(i64 8, ptr %9) #10
  call void @llvm.lifetime.start.p0(i64 4, ptr %10) #10
  call void @llvm.lifetime.start.p0(i64 4, ptr %11) #10
  call void @llvm.lifetime.start.p0(i64 4, ptr %12) #10
  call void @llvm.lifetime.start.p0(i64 8, ptr %13) #10
  call void @llvm.lifetime.start.p0(i64 1, ptr %14) #10
  %16 = load ptr, ptr %5, align 8
  %17 = call i32 @tvb_reported_length(ptr noundef %16)
  store i32 %17, ptr %10, align 4
  %18 = load ptr, ptr %7, align 8
  %19 = load i32, ptr @hf_nas_eps_bearer_id, align 4
  %20 = load ptr, ptr %5, align 8
  %21 = load i32, ptr %8, align 4
  %22 = call ptr @proto_tree_add_item(ptr noundef %18, i32 noundef %19, ptr noundef %20, i32 noundef %21, i32 noundef 1, i32 noundef 0)
  %23 = load ptr, ptr %7, align 8
  %24 = load i32, ptr @hf_gsm_a_L3_protocol_discriminator, align 4
  %25 = load ptr, ptr %5, align 8
  %26 = load i32, ptr %8, align 4
  %27 = call ptr @proto_tree_add_item(ptr noundef %23, i32 noundef %24, ptr noundef %25, i32 noundef %26, i32 noundef 1, i32 noundef 0)
  %28 = load i32, ptr %8, align 4
  %29 = add i32 %28, 1
  store i32 %29, ptr %8, align 4
  %30 = load ptr, ptr %7, align 8
  %31 = load i32, ptr @hf_nas_eps_esm_proc_trans_id, align 4
  %32 = load ptr, ptr %5, align 8
  %33 = load i32, ptr %8, align 4
  %34 = call ptr @proto_tree_add_item(ptr noundef %30, i32 noundef %31, ptr noundef %32, i32 noundef %33, i32 noundef 1, i32 noundef 0)
  %35 = load i32, ptr %8, align 4
  %36 = add i32 %35, 1
  store i32 %36, ptr %8, align 4
  %37 = load ptr, ptr %5, align 8
  %38 = load i32, ptr %8, align 4
  %39 = call zeroext i8 @tvb_get_uint8(ptr noundef %37, i32 noundef %38)
  store i8 %39, ptr %14, align 1
  store ptr null, ptr %13, align 8
  store i32 -1, ptr %11, align 4
  store i32 -1, ptr %12, align 4
  store ptr null, ptr %9, align 8
  %40 = load i8, ptr %14, align 1
  call void @get_nas_esm_msg_params(i8 noundef zeroext %40, ptr noundef %9, ptr noundef %11, ptr noundef %12, ptr noundef %13)
  %41 = load ptr, ptr %9, align 8
  %42 = icmp ne ptr %41, null
  br i1 %42, label %43, label %48

43:                                               ; preds = %4
  %44 = load ptr, ptr %6, align 8
  %45 = getelementptr inbounds nuw %struct._packet_info, ptr %44, i32 0, i32 1
  %46 = load ptr, ptr %45, align 8
  %47 = load ptr, ptr %9, align 8
  call void @col_append_sep_str(ptr noundef %46, i32 noundef 25, ptr noundef null, ptr noundef %47)
  br label %56

48:                                               ; preds = %4
  %49 = load ptr, ptr %7, align 8
  %50 = load ptr, ptr %6, align 8
  %51 = load ptr, ptr %5, align 8
  %52 = load i32, ptr %8, align 4
  %53 = load i8, ptr %14, align 1
  %54 = zext i8 %53 to i32
  %55 = call ptr (ptr, ptr, ptr, ptr, i32, i32, ptr, ...) @proto_tree_add_expert_format(ptr noundef %49, ptr noundef %50, ptr noundef @ei_nas_eps_unknown_msg_type, ptr noundef %51, i32 noundef %52, i32 noundef 1, ptr noundef @.str.958, i32 noundef %54)
  store i32 1, ptr %15, align 4
  br label %91

56:                                               ; preds = %43
  %57 = load ptr, ptr %7, align 8
  %58 = load i32, ptr %12, align 4
  %59 = load ptr, ptr %5, align 8
  %60 = load i32, ptr %8, align 4
  %61 = call ptr @proto_tree_add_item(ptr noundef %57, i32 noundef %58, ptr noundef %59, i32 noundef %60, i32 noundef 1, i32 noundef 0)
  %62 = load i32, ptr %8, align 4
  %63 = add i32 %62, 1
  store i32 %63, ptr %8, align 4
  %64 = load ptr, ptr %13, align 8
  %65 = icmp eq ptr %64, null
  br i1 %65, label %66, label %81

66:                                               ; preds = %56
  %67 = load ptr, ptr %5, align 8
  %68 = load i32, ptr %8, align 4
  %69 = call i32 @tvb_reported_length_remaining(ptr noundef %67, i32 noundef %68)
  %70 = icmp ne i32 %69, 0
  br i1 %70, label %71, label %80

71:                                               ; preds = %66
  %72 = load ptr, ptr %7, align 8
  %73 = load i32, ptr @hf_nas_eps_msg_elems, align 4
  %74 = load ptr, ptr %5, align 8
  %75 = load i32, ptr %8, align 4
  %76 = load i32, ptr %10, align 4
  %77 = load i32, ptr %8, align 4
  %78 = sub i32 %76, %77
  %79 = call ptr @proto_tree_add_item(ptr noundef %72, i32 noundef %73, ptr noundef %74, i32 noundef %75, i32 noundef %78, i32 noundef 0)
  br label %80

80:                                               ; preds = %71, %66
  br label %90

81:                                               ; preds = %56
  %82 = load ptr, ptr %13, align 8
  %83 = load ptr, ptr %5, align 8
  %84 = load ptr, ptr %7, align 8
  %85 = load ptr, ptr %6, align 8
  %86 = load i32, ptr %8, align 4
  %87 = load i32, ptr %10, align 4
  %88 = load i32, ptr %8, align 4
  %89 = sub i32 %87, %88
  call void %82(ptr noundef %83, ptr noundef %84, ptr noundef %85, i32 noundef %86, i32 noundef %89)
  br label %90

90:                                               ; preds = %81, %80
  store i32 0, ptr %15, align 4
  br label %91

91:                                               ; preds = %90, %48
  call void @llvm.lifetime.end.p0(i64 1, ptr %14) #10
  call void @llvm.lifetime.end.p0(i64 8, ptr %13) #10
  call void @llvm.lifetime.end.p0(i64 4, ptr %12) #10
  call void @llvm.lifetime.end.p0(i64 4, ptr %11) #10
  call void @llvm.lifetime.end.p0(i64 4, ptr %10) #10
  call void @llvm.lifetime.end.p0(i64 8, ptr %9) #10
  %92 = load i32, ptr %15, align 4
  switch i32 %92, label %94 [
    i32 0, label %93
    i32 1, label %93
  ]

93:                                               ; preds = %91, %91
  ret void

94:                                               ; preds = %91
  unreachable
}