; Function Attrs: null_pointer_is_valid sspstrong uwtable
define internal fastcc void @dissect_nas_eps_esm_msg(ptr noundef %0, ptr noundef %1, ptr noundef %2, i32 noundef range(i32 0, 7) %3) unnamed_addr #1 {
  %5 = alloca i32, align 4
  %6 = tail call i32 @tvb_reported_length(ptr noundef %0)
  %7 = load i32, ptr @hf_nas_eps_bearer_id, align 4
  %8 = tail call ptr @proto_tree_add_item(ptr noundef %2, i32 noundef %7, ptr noundef %0, i32 noundef %3, i32 noundef 1, i32 noundef 0)
  %9 = load i32, ptr @hf_gsm_a_L3_protocol_discriminator, align 4
  %10 = tail call ptr @proto_tree_add_item(ptr noundef %2, i32 noundef %9, ptr noundef %0, i32 noundef %3, i32 noundef 1, i32 noundef 0)
  %11 = add nuw nsw i32 %3, 1
  %12 = load i32, ptr @hf_nas_eps_esm_proc_trans_id, align 4
  %13 = tail call ptr @proto_tree_add_item(ptr noundef %2, i32 noundef %12, ptr noundef %0, i32 noundef %11, i32 noundef 1, i32 noundef 0)
  %14 = add nuw nsw i32 %3, 2
  %15 = tail call zeroext i8 @tvb_get_uint8(ptr noundef %0, i32 noundef %14)
  call void @llvm.lifetime.start.p0(i64 4, ptr nonnull %5) #10
  %16 = zext i8 %15 to i32
  %17 = call ptr @try_val_to_str_idx_ext(i32 noundef %16, ptr noundef nonnull @nas_msg_esm_strings_ext, ptr noundef nonnull %5)
  %.not.i = icmp eq ptr %17, null
  br i1 %.not.i, label %29, label %18

18:                                               ; preds = %4
  %19 = load i32, ptr @hf_nas_eps_msg_esm_type, align 4
  %20 = load i32, ptr %5, align 4
  %21 = sext i32 %20 to i64
  %22 = getelementptr [28 x ptr], ptr @nas_msg_esm_fcn, i64 0, i64 %21
  %23 = load ptr, ptr %22, align 8
  call void @llvm.lifetime.end.p0(i64 4, ptr nonnull %5) #10
  %24 = getelementptr inbounds nuw i8, ptr %1, i64 8
  %25 = load ptr, ptr %24, align 8
  call void @col_append_sep_str(ptr noundef %25, i32 noundef 25, ptr noundef null, ptr noundef nonnull %17)
  %26 = call ptr @proto_tree_add_item(ptr noundef %2, i32 noundef %19, ptr noundef %0, i32 noundef %14, i32 noundef 1, i32 noundef 0)
  %27 = add nuw nsw i32 %3, 3
  %28 = icmp eq i32 %20, 27
  br i1 %28, label %31, label %37

29:                                               ; preds = %4
  call void @llvm.lifetime.end.p0(i64 4, ptr nonnull %5) #10
  %30 = call ptr (ptr, ptr, ptr, ptr, i32, i32, ptr, ...) @proto_tree_add_expert_format(ptr noundef %2, ptr noundef %1, ptr noundef nonnull @ei_nas_eps_unknown_msg_type, ptr noundef %0, i32 noundef %14, i32 noundef 1, ptr noundef nonnull @.str.958, i32 noundef %16)
  br label %39

31:                                               ; preds = %18
  %32 = call i32 @tvb_reported_length_remaining(ptr noundef %0, i32 noundef %27)
  %.not38 = icmp eq i32 %32, 0
  br i1 %.not38, label %39, label %33

33:                                               ; preds = %31
  %34 = load i32, ptr @hf_nas_eps_msg_elems, align 4
  %35 = sub i32 %6, %27
  %36 = call ptr @proto_tree_add_item(ptr noundef %2, i32 noundef %34, ptr noundef %0, i32 noundef %27, i32 noundef %35, i32 noundef 0)
  br label %39

37:                                               ; preds = %18
  %38 = sub i32 %6, %27
  call void %23(ptr noundef %0, ptr noundef %2, ptr noundef %1, i32 noundef %27, i32 noundef %38)
  br label %39

39:                                               ; preds = %37, %33, %31, %29
  ret void
}